target datalayout = "e-m:e-p270:32:32-p271:32:32-p272:64:64-i64:64-i128:128-f80:128-n8:16:32:64-S128"
target triple = "x86_64-pc-linux-gnu"

%struct.expert_field = type { i32, i32 }
%struct.MessageHeader = type { [4 x i8], %struct.Version, i8, i8, i32, i32, i32, ptr }
%struct.Version = type { i8, i8 }

@hf_GIAS_DataModelMgr_get_entity_attributes_return_loop = internal global i32 0, align 4
@hf_GIAS_DataModelMgr_get_entity_attributes_aEntity = internal global i32 0, align 4
@hf_GIAS_DataModelMgr_get_entity_attributes_properties_loop = internal global i32 0, align 4
@hf_UCO_NameValue_aname = internal global i32 0, align 4
@ei_gias_unknown_giop_msg = internal global %struct.expert_field zeroinitializer, align 4
@ei_gias_unknown_exception = internal global %struct.expert_field zeroinitializer, align 4
@ett_giop_struct = internal global i32 0, align 4
@ett_giop_sequence = internal global i32 0, align 4
@boundary = internal global i32 12, align 4
@.str.826 = private unnamed_addr constant [21 x i8] c"Unknown exception %d\00", align 1
@.str.827 = private unnamed_addr constant [24 x i8] c"Unknown GIOP message %d\00", align 1
@.str.855 = private unnamed_addr constant [21 x i8] c"struct UCO_NameValue\00", align 1
@.str.899 = private unnamed_addr constant [33 x i8] c"struct GIAS_AttributeInformation\00", align 1
@.str.912 = private unnamed_addr constant [60 x i8] c"sequence GIAS_DataModelMgr_get_entity_attributes_properties\00", align 1
@.str.913 = private unnamed_addr constant [56 x i8] c"sequence GIAS_DataModelMgr_get_entity_attributes_return\00", align 1

; Function Attrs: null_pointer_is_valid sspstrong uwtable
define internal void @decode_UCO_NameValue_st(ptr noundef %0, ptr noundef %1, ptr noundef %2, ptr noundef %3, ptr noundef %4, ptr noundef %5, ptr noundef %6, i1 noundef zeroext %7) #0 {
  %9 = alloca ptr, align 8
  %10 = alloca ptr, align 8
  %11 = alloca ptr, align 8
  %12 = alloca ptr, align 8
  %13 = alloca ptr, align 8
  %14 = alloca ptr, align 8
  %15 = alloca ptr, align 8
  %16 = alloca i8, align 1
  store ptr %0, ptr %9, align 8
  store ptr %1, ptr %10, align 8
  store ptr %2, ptr %11, align 8
  store ptr %3, ptr %12, align 8
  store ptr %4, ptr %13, align 8
  store ptr %5, ptr %14, align 8
  store ptr %6, ptr %15, align 8
  %17 = zext i1 %7 to i8
  store i8 %17, ptr %16, align 1
  %18 = load ptr, ptr %11, align 8
  %19 = load ptr, ptr %9, align 8
  %20 = load ptr, ptr %13, align 8
  %21 = load i8, ptr %16, align 1, !range !6, !noundef !7
  %22 = trunc i8 %21 to i1
  %23 = load i32, ptr @boundary, align 4
  %24 = load i32, ptr @hf_UCO_NameValue_aname, align 4
  call void @giop_add_CDR_string(ptr noundef %18, ptr noundef %19, ptr noundef %20, i1 noundef zeroext %22, i32 noundef %23, i32 noundef %24)
  %25 = load ptr, ptr %9, align 8
  %26 = load ptr, ptr %10, align 8
  %27 = load ptr, ptr %11, align 8
  %28 = load ptr, ptr %12, align 8
  %29 = load ptr, ptr %13, align 8
  %30 = load i8, ptr %16, align 1, !range !6, !noundef !7
  %31 = trunc i8 %30 to i1
  %32 = load i32, ptr @boundary, align 4
  %33 = load ptr, ptr %14, align 8
  call void @get_CDR_any(ptr noundef %25, ptr noundef %26, ptr noundef %27, ptr noundef %28, ptr noundef %29, i1 noundef zeroext %31, i32 noundef %32, ptr noundef %33)
  ret void
}

; Function Attrs: null_pointer_is_valid sspstrong uwtable
define internal void @decode_GIAS_DataModelMgr_get_entity_attributes(ptr noundef %0, ptr noundef %1, ptr noundef %2, ptr noundef %3, ptr noundef %4, ptr noundef %5, ptr noundef %6, i1 noundef zeroext %7) #0 {
  %9 = alloca ptr, align 8
  %10 = alloca ptr, align 8
  %11 = alloca ptr, align 8
  %12 = alloca ptr, align 8
  %13 = alloca ptr, align 8
  %14 = alloca ptr, align 8
  %15 = alloca ptr, align 8
  %16 = alloca i8, align 1
  %17 = alloca i32, align 4
  %18 = alloca i32, align 4
  %19 = alloca i32, align 4
  %20 = alloca i32, align 4
  %21 = alloca ptr, align 8
  %22 = alloca ptr, align 8
  %23 = alloca ptr, align 8
  %24 = alloca ptr, align 8
  store ptr %0, ptr %9, align 8
  store ptr %1, ptr %10, align 8
  store ptr %2, ptr %11, align 8
  store ptr %3, ptr %12, align 8
  store ptr %4, ptr %13, align 8
  store ptr %5, ptr %14, align 8
  store ptr %6, ptr %15, align 8
  %25 = zext i1 %7 to i8
  store i8 %25, ptr %16, align 1
  call void @llvm.lifetime.start.p0(i64 4, ptr %17) #6
  call void @llvm.lifetime.start.p0(i64 4, ptr %18) #6
  call void @llvm.lifetime.start.p0(i64 4, ptr %19) #6
  call void @llvm.lifetime.start.p0(i64 4, ptr %20) #6
  %26 = load ptr, ptr %14, align 8
  %27 = getelementptr inbounds nuw %struct.MessageHeader, ptr %26, i32 0, i32 3
  %28 = load i8, ptr %27, align 1
  %29 = zext i8 %28 to i32
  switch i32 %29, label %143 [
    i32 0, label %30
    i32 1, label %84
  ]

30:                                               ; preds = %8
  %31 = load ptr, ptr %11, align 8
  %32 = load ptr, ptr %9, align 8
  %33 = load ptr, ptr %13, align 8
  %34 = load i8, ptr %16, align 1, !range !6, !noundef !7
  %35 = trunc i8 %34 to i1
  %36 = load i32, ptr @boundary, align 4
  %37 = load i32, ptr @hf_GIAS_DataModelMgr_get_entity_attributes_aEntity, align 4
  call void @giop_add_CDR_string(ptr noundef %31, ptr noundef %32, ptr noundef %33, i1 noundef zeroext %35, i32 noundef %36, i32 noundef %37)
  %38 = load ptr, ptr %9, align 8
  %39 = load ptr, ptr %13, align 8
  %40 = load i8, ptr %16, align 1, !range !6, !noundef !7
  %41 = trunc i8 %40 to i1
  %42 = load i32, ptr @boundary, align 4
  %43 = call i32 @get_CDR_ulong(ptr noundef %38, ptr noundef %39, i1 noundef zeroext %41, i32 noundef %42)
  store i32 %43, ptr %17, align 4
  %44 = load ptr, ptr %11, align 8
  %45 = load i32, ptr @hf_GIAS_DataModelMgr_get_entity_attributes_properties_loop, align 4
  %46 = load ptr, ptr %9, align 8
  %47 = load ptr, ptr %13, align 8
  %48 = load i32, ptr %47, align 4
  %49 = sub i32 %48, 4
  %50 = load i32, ptr %17, align 4
  %51 = call ptr @proto_tree_add_uint(ptr noundef %44, i32 noundef %45, ptr noundef %46, i32 noundef %49, i32 noundef 4, i32 noundef %50)
  call void @llvm.lifetime.start.p0(i64 8, ptr %21) #6
  %52 = load ptr, ptr %11, align 8
  store ptr %52, ptr %21, align 8
  %53 = load ptr, ptr %11, align 8
  %54 = load ptr, ptr %9, align 8
  %55 = load ptr, ptr %13, align 8
  %56 = load i32, ptr %55, align 4
  %57 = load i32, ptr @ett_giop_sequence, align 4
  %58 = call ptr @proto_tree_add_subtree(ptr noundef %53, ptr noundef %54, i32 noundef %56, i32 noundef -1, i32 noundef %57, ptr noundef null, ptr noundef @.str.912)
  store ptr %58, ptr %11, align 8
  store i32 0, ptr %18, align 4
  br label %59

59:                                               ; preds = %79, %30
  %60 = load i32, ptr %18, align 4
  %61 = load i32, ptr %17, align 4
  %62 = icmp ult i32 %60, %61
  br i1 %62, label %63, label %82

63:                                               ; preds = %59
  call void @llvm.lifetime.start.p0(i64 8, ptr %22) #6
  %64 = load ptr, ptr %11, align 8
  %65 = load ptr, ptr %9, align 8
  %66 = load ptr, ptr %13, align 8
  %67 = load i32, ptr %66, align 4
  %68 = load i32, ptr @ett_giop_struct, align 4
  %69 = call ptr @proto_tree_add_subtree(ptr noundef %64, ptr noundef %65, i32 noundef %67, i32 noundef -1, i32 noundef %68, ptr noundef null, ptr noundef @.str.855)
  store ptr %69, ptr %22, align 8
  %70 = load ptr, ptr %9, align 8
  %71 = load ptr, ptr %10, align 8
  %72 = load ptr, ptr %22, align 8
  %73 = load ptr, ptr %12, align 8
  %74 = load ptr, ptr %13, align 8
  %75 = load ptr, ptr %14, align 8
  %76 = load ptr, ptr %15, align 8
  %77 = load i8, ptr %16, align 1, !range !6, !noundef !7
  %78 = trunc i8 %77 to i1
  call void @decode_UCO_NameValue_st(ptr noundef %70, ptr noundef %71, ptr noundef %72, ptr noundef %73, ptr noundef %74, ptr noundef %75, ptr noundef %76, i1 noundef zeroext %78)
  call void @llvm.lifetime.end.p0(i64 8, ptr %22) #6
  br label %79

79:                                               ; preds = %63
  %80 = load i32, ptr %18, align 4
  %81 = add i32 %80, 1
  store i32 %81, ptr %18, align 4
  br label %59, !llvm.loop !45

82:                                               ; preds = %59
  %83 = load ptr, ptr %21, align 8
  store ptr %83, ptr %11, align 8
  call void @llvm.lifetime.end.p0(i64 8, ptr %21) #6
  br label %151

84:                                               ; preds = %8
  %85 = load ptr, ptr %14, align 8
  %86 = getelementptr inbounds nuw %struct.MessageHeader, ptr %85, i32 0, i32 6
  %87 = load i32, ptr %86, align 8
  switch i32 %87, label %135 [
    i32 0, label %88
    i32 1, label %142
  ]

88:                                               ; preds = %84
  %89 = load ptr, ptr %9, align 8
  %90 = load ptr, ptr %13, align 8
  %91 = load i8, ptr %16, align 1, !range !6, !noundef !7
  %92 = trunc i8 %91 to i1
  %93 = load i32, ptr @boundary, align 4
  %94 = call i32 @get_CDR_ulong(ptr noundef %89, ptr noundef %90, i1 noundef zeroext %92, i32 noundef %93)
  store i32 %94, ptr %19, align 4
  %95 = load ptr, ptr %11, align 8
  %96 = load i32, ptr @hf_GIAS_DataModelMgr_get_entity_attributes_return_loop, align 4
  %97 = load ptr, ptr %9, align 8
  %98 = load ptr, ptr %13, align 8
  %99 = load i32, ptr %98, align 4
  %100 = sub i32 %99, 4
  %101 = load i32, ptr %19, align 4
  %102 = call ptr @proto_tree_add_uint(ptr noundef %95, i32 noundef %96, ptr noundef %97, i32 noundef %100, i32 noundef 4, i32 noundef %101)
  call void @llvm.lifetime.start.p0(i64 8, ptr %23) #6
  %103 = load ptr, ptr %11, align 8
  store ptr %103, ptr %23, align 8
  %104 = load ptr, ptr %11, align 8
  %105 = load ptr, ptr %9, align 8
  %106 = load ptr, ptr %13, align 8
  %107 = load i32, ptr %106, align 4
  %108 = load i32, ptr @ett_giop_sequence, align 4
  %109 = call ptr @proto_tree_add_subtree(ptr noundef %104, ptr noundef %105, i32 noundef %107, i32 noundef -1, i32 noundef %108, ptr noundef null, ptr noundef @.str.913)
  store ptr %109, ptr %11, align 8
  store i32 0, ptr %20, align 4
  br label %110

110:                                              ; preds = %130, %88
  %111 = load i32, ptr %20, align 4
  %112 = load i32, ptr %19, align 4
  %113 = icmp ult i32 %111, %112
  br i1 %113, label %114, label %133

114:                                              ; preds = %110
  call void @llvm.lifetime.start.p0(i64 8, ptr %24) #6
  %115 = load ptr, ptr %11, align 8
  %116 = load ptr, ptr %9, align 8
  %117 = load ptr, ptr %13, align 8
  %118 = load i32, ptr %117, align 4
  %119 = load i32, ptr @ett_giop_struct, align 4
  %120 = call ptr @proto_tree_add_subtree(ptr noundef %115, ptr noundef %116, i32 noundef %118, i32 noundef -1, i32 noundef %119, ptr noundef null, ptr noundef @.str.899)
  store ptr %120, ptr %24, align 8
  %121 = load ptr, ptr %9, align 8
  %122 = load ptr, ptr %10, align 8
  %123 = load ptr, ptr %24, align 8
  %124 = load ptr, ptr %12, align 8
  %125 = load ptr, ptr %13, align 8
  %126 = load ptr, ptr %14, align 8
  %127 = load ptr, ptr %15, align 8
  %128 = load i8, ptr %16, align 1, !range !6, !noundef !7
  %129 = trunc i8 %128 to i1
  call void @decode_GIAS_AttributeInformation_st(ptr noundef %121, ptr noundef %122, ptr noundef %123, ptr noundef %124, ptr noundef %125, ptr noundef %126, ptr noundef %127, i1 noundef zeroext %129)
  call void @llvm.lifetime.end.p0(i64 8, ptr %24) #6
  br label %130

130:                                              ; preds = %114
  %131 = load i32, ptr %20, align 4
  %132 = add i32 %131, 1
  store i32 %132, ptr %20, align 4
  br label %110, !llvm.loop !46

133:                                              ; preds = %110
  %134 = load ptr, ptr %23, align 8
  store ptr %134, ptr %11, align 8
  call void @llvm.lifetime.end.p0(i64 8, ptr %23) #6
  br label %142

135:                                              ; preds = %84
  %136 = load ptr, ptr %10, align 8
  %137 = load ptr, ptr %12, align 8
  %138 = load ptr, ptr %14, align 8
  %139 = getelementptr inbounds nuw %struct.MessageHeader, ptr %138, i32 0, i32 6
  %140 = load i32, ptr %139, align 8
  %141 = call ptr (ptr, ptr, ptr, ptr, ...) @expert_add_info_format(ptr noundef %136, ptr noundef %137, ptr noundef @ei_gias_unknown_exception, ptr noundef @.str.826, i32 noundef %140)
  br label %142

142:                                              ; preds = %135, %84, %133
  br label %151

143:                                              ; preds = %8
  %144 = load ptr, ptr %10, align 8
  %145 = load ptr, ptr %12, align 8
  %146 = load ptr, ptr %14, align 8
  %147 = getelementptr inbounds nuw %struct.MessageHeader, ptr %146, i32 0, i32 3
  %148 = load i8, ptr %147, align 1
  %149 = zext i8 %148 to i32
  %150 = call ptr (ptr, ptr, ptr, ptr, ...) @expert_add_info_format(ptr noundef %144, ptr noundef %145, ptr noundef @ei_gias_unknown_giop_msg, ptr noundef @.str.827, i32 noundef %149)
  br label %151

151:                                              ; preds = %143, %142, %82
  call void @llvm.lifetime.end.p0(i64 4, ptr %20) #6
  call void @llvm.lifetime.end.p0(i64 4, ptr %19) #6
  call void @llvm.lifetime.end.p0(i64 4, ptr %18) #6
  call void @llvm.lifetime.end.p0(i64 4, ptr %17) #6
  ret void
}