; Function Attrs: null_pointer_is_valid sspstrong uwtable
define internal fastcc void @decode_GIAS_DataModelMgr_get_entity_attributes(ptr noundef %0, ptr noundef %1, ptr noundef %2, ptr noundef %3, ptr noundef %4, ptr noundef %5, i1 noundef zeroext %6) unnamed_addr #0 {
  %8 = getelementptr inbounds nuw i8, ptr %5, i64 7
  %9 = load i8, ptr %8, align 1
  switch i8 %9, label %43 [
    i8 0, label %10
    i8 1, label %25
  ]

10:                                               ; preds = %7
  %11 = load i32, ptr @hf_GIAS_DataModelMgr_get_entity_attributes_aEntity, align 4
  tail call void @giop_add_CDR_string(ptr noundef %2, ptr noundef %0, ptr noundef %4, i1 noundef zeroext %6, i32 noundef 12, i32 noundef %11)
  %12 = tail call i32 @get_CDR_ulong(ptr noundef %0, ptr noundef %4, i1 noundef zeroext %6, i32 noundef 12)
  %13 = load i32, ptr @hf_GIAS_DataModelMgr_get_entity_attributes_properties_loop, align 4
  %14 = load i32, ptr %4, align 4
  %15 = add i32 %14, -4
  %16 = tail call ptr @proto_tree_add_uint(ptr noundef %2, i32 noundef %13, ptr noundef %0, i32 noundef %15, i32 noundef 4, i32 noundef %12)
  %17 = load i32, ptr %4, align 4
  %18 = load i32, ptr @ett_giop_sequence, align 4
  %19 = tail call ptr @proto_tree_add_subtree(ptr noundef %2, ptr noundef %0, i32 noundef %17, i32 noundef -1, i32 noundef %18, ptr noundef null, ptr noundef nonnull @.str.912)
  %.not5 = icmp eq i32 %12, 0
  br i1 %.not5, label %.loopexit, label %.lr.ph4

.lr.ph4:                                          ; preds = %10, %.lr.ph4
  %.03 = phi i32 [ %24, %.lr.ph4 ], [ 0, %10 ]
  %20 = load i32, ptr %4, align 4
  %21 = load i32, ptr @ett_giop_struct, align 4
  %22 = tail call ptr @proto_tree_add_subtree(ptr noundef %19, ptr noundef %0, i32 noundef %20, i32 noundef -1, i32 noundef %21, ptr noundef null, ptr noundef nonnull @.str.855)
  %23 = load i32, ptr @hf_UCO_NameValue_aname, align 4
  tail call void @giop_add_CDR_string(ptr noundef %22, ptr noundef %0, ptr noundef %4, i1 noundef zeroext %6, i32 noundef 12, i32 noundef %23)
  tail call void @get_CDR_any(ptr noundef %0, ptr noundef %1, ptr noundef %22, ptr noundef %3, ptr noundef %4, i1 noundef zeroext %6, i32 noundef 12, ptr noundef %5)
  %24 = add nuw i32 %.03, 1
  %exitcond7.not = icmp eq i32 %24, %12
  br i1 %exitcond7.not, label %.loopexit, label %.lr.ph4, !llvm.loop !46

25:                                               ; preds = %7
  %26 = getelementptr inbounds nuw i8, ptr %5, i64 16
  %27 = load i32, ptr %26, align 8
  switch i32 %27, label %41 [
    i32 0, label %28
    i32 1, label %.loopexit
  ]

28:                                               ; preds = %25
  %29 = tail call i32 @get_CDR_ulong(ptr noundef %0, ptr noundef %4, i1 noundef zeroext %6, i32 noundef 12)
  %30 = load i32, ptr @hf_GIAS_DataModelMgr_get_entity_attributes_return_loop, align 4
  %31 = load i32, ptr %4, align 4
  %32 = add i32 %31, -4
  %33 = tail call ptr @proto_tree_add_uint(ptr noundef %2, i32 noundef %30, ptr noundef %0, i32 noundef %32, i32 noundef 4, i32 noundef %29)
  %34 = load i32, ptr %4, align 4
  %35 = load i32, ptr @ett_giop_sequence, align 4
  %36 = tail call ptr @proto_tree_add_subtree(ptr noundef %2, ptr noundef %0, i32 noundef %34, i32 noundef -1, i32 noundef %35, ptr noundef null, ptr noundef nonnull @.str.913)
  %.not = icmp eq i32 %29, 0
  br i1 %.not, label %.loopexit, label %.lr.ph

.lr.ph:                                           ; preds = %28, %.lr.ph
  %.0632 = phi i32 [ %40, %.lr.ph ], [ 0, %28 ]
  %37 = load i32, ptr %4, align 4
  %38 = load i32, ptr @ett_giop_struct, align 4
  %39 = tail call ptr @proto_tree_add_subtree(ptr noundef %36, ptr noundef %0, i32 noundef %37, i32 noundef -1, i32 noundef %38, ptr noundef null, ptr noundef nonnull @.str.899)
  tail call fastcc void @decode_GIAS_AttributeInformation_st(ptr noundef %0, ptr noundef %1, ptr noundef %39, ptr noundef %4, i1 noundef zeroext %6)
  %40 = add nuw i32 %.0632, 1
  %exitcond.not = icmp eq i32 %40, %29
  br i1 %exitcond.not, label %.loopexit, label %.lr.ph, !llvm.loop !47

41:                                               ; preds = %25
  %42 = tail call ptr (ptr, ptr, ptr, ptr, ...) @expert_add_info_format(ptr noundef %1, ptr noundef %3, ptr noundef nonnull @ei_gias_unknown_exception, ptr noundef nonnull @.str.826, i32 noundef %27)
  br label %.loopexit

43:                                               ; preds = %7
  %44 = zext i8 %9 to i32
  %45 = tail call ptr (ptr, ptr, ptr, ptr, ...) @expert_add_info_format(ptr noundef %1, ptr noundef %3, ptr noundef nonnull @ei_gias_unknown_giop_msg, ptr noundef nonnull @.str.827, i32 noundef %44)
  br label %.loopexit

.loopexit:                                        ; preds = %.lr.ph, %.lr.ph4, %28, %10, %25, %41, %43
  ret void
}